(dp0
(I12
I-10
I-5
tp1
(dp2
S'do_nothing'
p3
F4.999945111033728
sS'tap'
p4
I0
ss(I15
I6
I11
tp5
(dp6
S'do_nothing'
p7
F3.736116284653822
sS'tap'
p8
I0
ss(I17
I5
I10
tp9
(dp10
g7
F4.520508101068373
sg8
I0
ss(I10
I-5
I0
tp11
(dp12
g3
F4.999999706781558
sg4
I0
ss(I6
I-7
I-2
tp13
(dp14
g3
F4.991356193132024
sg4
I0
ss(I5
I2
I7
tp15
(dp16
g7
F-371.7702663355439
sg8
F4.999992708444146
ss(I15
I8
I13
tp17
(dp18
g7
F2.2513221606746856
sg8
I0
ss(I10
I-11
I-6
tp19
(dp20
g3
F4.969486966980373
sg4
I0
ss(I-1
I-1
I4
tp21
(dp22
g3
F-1080.0
sg4
F4.99999541747275
ss(I3
I6
I11
tp23
(dp24
g7
F-549.523537047552
sg8
F-545.88384
ssS'Init'
p25
(dp26
g7
F4.886268002316439
sg8
I0
ss(I11
I10
I15
tp27
(dp28
g7
F-1080.0
sg8
F-8.20874730678582
ss(I12
I-7
I-2
tp29
(dp30
g3
F4.999997666890671
sg4
I0
ss(I18
I4
I9
tp31
(dp32
g7
F-1080.0
sg8
F4.766375675632037
ss(I9
I8
I13
tp33
(dp34
g7
F-43.026341365121255
sg8
F-61.53777846694451
ss(I12
I-8
I-3
tp35
(dp36
S'do_nothing'
p37
F4.999991203662418
sS'tap'
p38
I0
ss(I3
I0
I5
tp39
(dp40
g37
F-823.4243362002438
sg38
F4.999996672870426
ss(I8
I-9
I-4
tp41
(dp42
g3
F4.997929844984298
sg4
I0
ss(I2
I0
I5
tp43
(dp44
g37
F-1299.0744960000002
sg38
F-4.817090134616385
ss(I9
I5
I10
tp45
(dp46
g7
F-52.003294867338916
sg8
F-28.393779711559738
ss(I4
I-1
I4
tp47
(dp48
g37
F-15.291717979163096
sg38
F4.999999306076074
ss(I14
I9
I14
tp49
(dp50
g37
F2.190257426763183
sg38
I0
ss(I3
I1
I6
tp51
(dp52
g7
F-1053.0469761203926
sg8
F-1037.3762338798178
ss(I8
I-6
I-1
tp53
(dp54
g37
F4.999988912931472
sg38
I0
ss(I7
I-5
I0
tp55
(dp56
g37
F4.999997066292147
sg38
I0
ss(I6
I8
I13
tp57
(dp58
g7
F-39.88407427743591
sg8
F-126.27136034440454
ss(I8
I-4
I1
tp59
(dp60
g37
F4.9999996272431275
sg38
I0
ss(I10
I4
I9
tp61
(dp62
g7
F-9.124819469969955
sg8
F2.9999949698413726
ss(I-3
I-2
I3
tp63
(dp64
g37
F-1079.284095824581
sg38
F4.99999827946489
ss(I7
I9
I14
tp65
(dp66
g37
F0.6
sg38
I0
ss(I-3
I-4
I1
tp67
(dp68
g3
F4.999998652830365
sg4
I0
ss(I8
I0
I5
tp69
(dp70
g37
F4.99999945888503
sg38
I0
ss(I1
I6
I11
tp71
(dp72
g7
F-1684.8000000000002
sg8
F-1512.0
ss(I9
I4
I9
tp73
(dp74
g7
F-38.914162333584514
sg8
F-22.9414156607991
ss(I7
I3
I8
tp75
(dp76
g7
F-119.34400457039231
sg8
F4.99998256748292
ss(I14
I4
I9
tp77
(dp78
g7
F3.6866217004618878
sg8
I0
ss(I6
I-6
I-1
tp79
(dp80
g3
F4.999918653722979
sg4
I0
ss(I12
I10
I15
tp81
(dp82
g37
F-1.510039032606438
sg38
F-5.485859213362384
ss(I11
I7
I12
tp83
(dp84
g7
F-1079.5387611925944
sg8
F-9.508178458492438
ss(I9
I-10
I-5
tp85
(dp86
g3
F4.992581112893284
sg4
I0
ss(I0
I-3
I2
tp87
(dp88
g37
F4.999999062506108
sg38
I0
ss(I12
I0
I5
tp89
(dp90
g3
F4.9999919045675
sg4
I0
ss(I13
I7
I12
tp91
(dp92
g7
F1.5116579412658742
sg8
I0
ss(I4
I9
I14
tp93
(dp94
g7
F-1080.0
sg8
F-145.0252113409817
ss(I9
I-8
I-3
tp95
(dp96
g3
F4.999978208307503
sg4
I0
ss(I5
I8
I13
tp97
(dp98
g7
F-69.2934209721605
sg8
F-69.31361293961747
ss(I12
I-4
I1
tp99
(dp100
g3
F4.999999769185976
sg4
I0
ss(I15
I2
I7
tp101
(dp102
g7
F4.6749159334805235
sg8
I0
ss(I7
I-1
I4
tp103
(dp104
g37
F4.999999444220649
sg38
I0
ss(I10
I10
I15
tp105
(dp106
g7
F1.5704439593281037
sg8
I0
ss(I5
I-3
I2
tp107
(dp108
g37
F4.9999978951838315
sg38
I0
ss(I3
I7
I12
tp109
(dp110
g7
F-251.6523391770624
sg8
F-545.9798400000001
ss(I1
I-1
I4
tp111
(dp112
g37
F-1512.0
sg38
F4.999923385588642
ss(I17
I6
I11
tp113
(dp114
g7
F4.404582110031122
sg8
I0
ss(I16
I9
I14
tp115
(dp116
g37
F3.4411799436052073
sg38
I0
ss(I10
I-6
I-1
tp117
(dp118
g3
F4.999999018119474
sg4
I0
ss(I2
I-2
I3
tp119
(dp120
g37
F4.999998610480515
sg38
I0
ss(I8
I3
I8
tp121
(dp122
g7
F-47.46590779291903
sg8
F4.9999981484547025
ss(I-5
I-3
I2
tp123
(dp124
g37
F4.99999762120358
sg38
I0
ss(I17
I8
I13
tp125
(dp126
g7
F3.731403354453122
sg8
I0
ss(I10
I6
I11
tp127
(dp128
g7
F-18.96983060793275
sg8
F-17.45871035999254
ss(I13
I2
I7
tp129
(dp130
g7
F4.686275376069402
sg8
I0
ss(I-4
I-2
I3
tp131
(dp132
g37
F-64.49375198726891
sg38
F4.999798306889649
ss(I8
I-1
I4
tp133
(dp134
g37
F4.999999519798495
sg38
I0
ss(I9
I9
I14
tp135
(dp136
g7
F-0.3939874268593
sg8
I0
ss(I989
I492
I492
tp137
(dp138
g7
F4.36663296623485
sg8
I0
ss(I11
I-4
I1
tp139
(dp140
g37
F4.9999997882828175
sg38
I0
ss(I12
I3
I8
tp141
(dp142
g7
F4.999979891073293
sg8
I0
ss(I9
I-4
I1
tp143
(dp144
g37
F4.999999741600674
sg38
I0
ss(I6
I6
I11
tp145
(dp146
g7
F-333.62676339340584
sg8
F-320.1382596778876
ss(I7
I-7
I-2
tp147
(dp148
g3
F4.999919325083188
sg4
I0
ss(I10
I0
I5
tp149
(dp150
g37
F4.999997053889798
sg38
I0
ss(I1
I7
I12
tp151
(dp152
g7
F-1684.8000000000002
sg8
F-1512.0
ss(I7
I4
I9
tp153
(dp154
g7
F-140.90104793128242
sg8
F-133.4193163488381
ss(I2
I6
I11
tp155
(dp156
g7
F-517.56
sg8
F-517.56
ss(I11
I-5
I0
tp157
(dp158
g3
F4.999999733795603
sg4
I0
ss(I8
I8
I13
tp159
(dp160
g7
F-59.694644892808896
sg8
F-81.23370548480696
ss(I11
I1
I6
tp161
(dp162
g37
F4.999997600106081
sg38
I0
ss(I14
I7
I12
tp163
(dp164
g7
F2.1269641087678415
sg8
I0
ss(I9
I6
I11
tp165
(dp166
g7
F-56.85887351732194
sg8
F-77.11221691226642
ss(I9
I-6
I-1
tp167
(dp168
g37
F4.99999592160609
sg38
I0
ss(I15
I7
I12
tp169
(dp170
g7
F2.767774078350837
sg8
I0
ss(I14
I8
I13
tp171
(dp172
g7
F1.290694690926879
sg8
I0
ss(I-5
I-4
I1
tp173
(dp174
g37
F4.999999428754817
sg38
I0
ss(I12
I6
I11
tp175
(dp176
g7
F1.4278142629919277
sg8
I0
ss(I-4
I-3
I2
tp177
(dp178
g37
F4.999998733415249
sg38
I0
ss(I1
I2
I7
tp179
(dp180
g7
F-1799.9698010112002
sg8
F-1799.9245025280002
ss(I15
I9
I14
tp181
(dp182
g37
F3.0438245004958944
sg38
I0
ss(I13
I3
I8
tp183
(dp184
g7
F4.677893844883304
sg8
I0
ss(I8
I-5
I0
tp185
(dp186
g3
F4.999992189603374
sg4
I0
ss(I18
I7
I12
tp187
(dp188
g7
F-1080.0
sg8
F4.605121891265824
ss(I11
I0
I5
tp189
(dp190
g37
F4.99999672402126
sg38
I0
ss(I11
I-1
I4
tp191
(dp192
g37
F4.99999822567327
sg38
I0
ss(I17
I7
I12
tp193
(dp194
g7
F4.45493928698142
sg8
I0
ss(I15
I5
I10
tp195
(dp196
g7
F4.095407269605647
sg8
I0
ss(I4
I6
I11
tp197
(dp198
g7
F-1080.0
sg8
F-662.2614510282237
ss(I10
I1
I6
tp199
(dp200
g37
F4.99999782194402
sg38
I0
ss(I989
I491
I491
tp201
(dp202
g7
F4.515577253581842
sg8
I0
ss(I9
I-11
I-6
tp203
(dp204
g3
F4.445552755814148
sg4
I0
ss(I8
I2
I7
tp205
(dp206
g7
F4.999996637809106
sg8
I0
ss(I13
I8
I13
tp207
(dp208
g7
F-0.33665429665472013
sg8
I0
ss(I6
I-5
I0
tp209
(dp210
g3
F4.999924479651336
sg4
I0
ss(I17
I2
I7
tp211
(dp212
g7
F4.315891284765875
sg8
I0
ss(I989
I486
I486
tp213
(dp214
g7
F4.855071060882367
sg8
I0
ss(I10
I7
I12
tp215
(dp216
g7
F-23.659570783050285
sg8
F-31.158567993054476
ss(I5
I9
I14
tp217
(dp218
g7
F-100.89503642540299
sg8
F-108.83884875019392
ss(I11
I-3
I2
tp219
(dp220
g37
F4.9999997274920265
sg38
I0
ss(I-6
I-3
I2
tp221
(dp222
g3
F4.999996216365512
sg4
I0
ss(I1
I0
I5
tp223
(dp224
g37
F-1799.5281408
sg38
F-1799.5281408
ss(I7
I5
I10
tp225
(dp226
g7
F-226.7641202783311
sg8
F-205.07319097423849
ss(I5
I-2
I3
tp227
(dp228
g37
F-1.4637970714510162
sg38
F4.999999181733481
ss(I12
I-2
I3
tp229
(dp230
g37
F4.999999201372219
sg38
I0
ss(I7
I0
I5
tp231
(dp232
g37
F4.9999995053731485
sg38
I0
ss(I6
I-1
I4
tp233
(dp234
g3
F-25.541680883892692
sg4
F4.9999993587825795
ss(I11
I4
I9
tp235
(dp236
g7
F-1079.2907480566237
sg8
F4.846374806095751
ss(I11
I-9
I-4
tp237
(dp238
g3
F4.999978352273615
sg4
I0
ss(I17
I9
I14
tp239
(dp240
g7
F3.78682159189161
sg8
I0
ss(I4
I8
I13
tp241
(dp242
g7
F-1080.0
sg8
F-170.4875170265113
ss(I3
I-4
I1
tp243
(dp244
g3
F4.999995397164867
sg4
I0
ss(I16
I7
I12
tp245
(dp246
g7
F3.4903354093079852
sg8
I0
ss(I15
I4
I9
tp247
(dp248
g7
F4.041728816092132
sg8
I0
ss(I1
I-4
I1
tp249
(dp250
g3
F4.999998605597494
sg4
I0
ss(I8
I-7
I-2
tp251
(dp252
g37
F4.9999869467435065
sg38
I0
ss(I6
I1
I6
tp253
(dp254
g7
F-6.096579654369135
sg8
F4.999999365247863
ss(I9
I-3
I2
tp255
(dp256
g37
F4.999999704207161
sg38
I0
ss(I4
I4
I9
tp257
(dp258
g7
F-773.6522188659226
sg8
F-684.496807586255
ss(I3
I4
I9
tp259
(dp260
g7
F-1022.7418684986166
sg8
F-874.4788339471695
ss(I8
I-8
I-3
tp261
(dp262
g3
F4.999697077725772
sg4
I0
ss(I9
I-5
I0
tp263
(dp264
g3
F4.999999645765614
sg4
I0
ss(I4
I3
I8
tp265
(dp266
g7
F-806.3094105819453
sg8
F-753.9218251745785
ss(I-3
I-3
I2
tp267
(dp268
g37
F4.999998648913079
sg38
I0
ss(I8
I7
I12
tp269
(dp270
g7
F-129.2210944171574
sg8
F-130.3359382975364
ss(I14
I6
I11
tp271
(dp272
g7
F3.218108857617445
sg8
I0
ss(I9
I7
I12
tp273
(dp274
g7
F-57.68431704219935
sg8
F-86.14853467470927
ss(I6
I-4
I1
tp275
(dp276
g37
F4.999997768807535
sg38
I0
ss(I9
I-7
I-2
tp277
(dp278
g37
F4.999989389243199
sg38
I0
ss(I12
I5
I10
tp279
(dp280
g7
F2.2165007988433603
sg8
I0
ss(I17
I3
I8
tp281
(dp282
g7
F4.717936844023927
sg8
I0
ss(I18
I6
I11
tp283
(dp284
g7
F-1080.0
sg8
F4.646888196239119
ss(I13
I4
I9
tp285
(dp286
g7
F3.2923507167394144
sg8
I0
ss(I3
I-1
I4
tp287
(dp288
g37
F-71.11824067815849
sg38
F4.999998547790475
ss(I12
I-9
I-4
tp289
(dp290
g3
F4.99997346892931
sg4
I0
ss(I12
I-5
I0
tp291
(dp292
g3
F4.999999245082449
sg4
I0
ssS'Dead'
p293
(dp294
g7
I-1000
sg8
I-1000
ss(I1
I4
I9
tp295
(dp296
g7
F-1781.5680000000002
sg8
F-1781.5680000000002
ss(I16
I2
I7
tp297
(dp298
g7
F4.672969869271543
sg8
I0
ss(I6
I-3
I2
tp299
(dp300
g37
F4.999999031215965
sg38
I0
ss(I2
I2
I7
tp301
(dp302
g7
F-1434.5669609349122
sg8
F-1429.6720382976005
ss(I10
I-1
I4
tp303
(dp304
g37
F4.999998177772069
sg38
I0
ss(I4
I5
I10
tp305
(dp306
g7
F-1079.589504
sg8
F-565.1585360846435
ss(I11
I5
I10
tp307
(dp308
g7
F-1080.0
sg8
F1.3178514848638354
ss(I10
I-3
I2
tp309
(dp310
g37
F4.99999966556166
sg38
I0
ss(I11
I-7
I-2
tp311
(dp312
g37
F4.9999972600194935
sg38
I0
ss(I8
I1
I6
tp313
(dp314
g7
F4.999997292797755
sg8
I0
ss(I15
I3
I8
tp315
(dp316
g7
F4.65892220775958
sg8
I0
ss(I5
I4
I9
tp317
(dp318
g7
F-529.3620145390552
sg8
F-559.8766701221551
ss(I3
I-3
I2
tp319
(dp320
g3
F4.999999276496997
sg4
I0
ss(I2
I5
I10
tp321
(dp322
g7
F-1280.5104000000001
sg8
F-1243.7055667200002
ss(I9
I0
I5
tp323
(dp324
g37
F4.999997371055597
sg38
I0
ss(I-4
I-4
I1
tp325
(dp326
g3
F4.999999277991336
sg4
I0
ss(I-1
I-3
I2
tp327
(dp328
g37
F4.99999892888904
sg38
I0
ss(I4
I-2
I3
tp329
(dp330
g3
F4.999999321267357
sg4
I0
ss(I11
I9
I14
tp331
(dp332
g7
F-1078.7449470013514
sg8
F-13.214462743111877
ss(I-6
I-4
I1
tp333
(dp334
g37
F4.9999994312110605
sg38
I0
ss(I1
I1
I6
tp335
(dp336
g7
F-1799.5281408
sg8
F-1798.8203520000002
ss(I10
I8
I13
tp337
(dp338
g7
F-29.22795463389757
sg8
F-35.449209765204124
ss(I-3
I-1
I4
tp339
(dp340
g37
F-1080.0
sg38
I0
ss(I11
I-8
I-3
tp341
(dp342
g37
F4.999981006104941
sg38
I0
ss(I12
I-3
I2
tp343
(dp344
g37
F4.999999518348787
sg38
I0
ss(I3
I5
I10
tp345
(dp346
g7
F-908.0658947373468
sg8
F-930.4890008985601
ss(I6
I-10
I-5
tp347
(dp348
g3
F1.1696061005092306
sg4
I0
ss(I12
I8
I13
tp349
(dp350
g7
F-2.669537837578142
sg8
F-3.96392566007637
ss(I3
I8
I13
tp351
(dp352
g7
F-1080.0
sg8
F-191.33144507478838
ss(I2
I-4
I1
tp353
(dp354
g3
F4.999998785024038
sg4
I0
ss(I2
I8
I13
tp355
(dp356
g7
F-932.2800000000001
sg8
F-725.1600000000001
ss(I17
I10
I15
tp357
(dp358
g37
F4.141193956800097
sg38
I0
ss(I0
I-2
I3
tp359
(dp360
g37
F4.999997294045672
sg38
I0
ss(I-2
I-2
I3
tp361
(dp362
g37
F-1079.1402693178266
sg38
F4.99999857158932
ss(I14
I1
I6
tp363
(dp364
g7
F2.6001283605343994
sg8
I0
ss(I12
I-11
I-6
tp365
(dp366
g3
F4.974717739463334
sg4
I0
ss(I1
I-3
I2
tp367
(dp368
g37
F4.999999130502831
sg38
I0
ss(I989
I490
I490
tp369
(dp370
g7
F4.6224611242323235
sg8
I0
ss(I10
I3
I8
tp371
(dp372
g7
F-2.5534593369096648
sg8
F4.999996133793617
ss(I5
I-7
I-2
tp373
(dp374
g3
F4.397978541216796
sg4
I0
ss(I7
I-2
I3
tp375
(dp376
g37
F4.999999555949902
sg38
I0
ss(I7
I-6
I-1
tp377
(dp378
g37
F4.999980501745162
sg38
I0
ss(I9
I-2
I3
tp379
(dp380
g37
F4.999999572908491
sg38
I0
ss(I7
I1
I6
tp381
(dp382
g7
F-4.119328447006465
sg8
F4.999999501401607
ss(I6
I3
I8
tp383
(dp384
g7
F4.999970746686364
sg8
F-229.89076917043488
ss(I7
I-9
I-4
tp385
(dp386
g3
F4.797720586283457
sg4
I0
ss(I4
I-7
I-2
tp387
(dp388
g3
F1.4507322054117597
sg4
I0
ss(I12
I2
I7
tp389
(dp390
g7
F4.999995541509976
sg8
I0
ss(I7
I6
I11
tp391
(dp392
g7
F-207.17635674506866
sg8
F-237.98198948200962
ss(I0
I-4
I1
tp393
(dp394
g3
F4.999995781746917
sg4
I0
ss(I16
I6
I11
tp395
(dp396
g7
F4.106873310022481
sg8
I0
ss(I10
I-10
I-5
tp397
(dp398
g3
F4.9933156803566705
sg4
I0
ss(I11
I-10
I-5
tp399
(dp400
g3
F4.999906943370675
sg4
I0
ss(I4
I1
I6
tp401
(dp402
g37
F-542.6204504680692
sg38
F4.999995211474412
ss(I4
I2
I7
tp403
(dp404
g7
F-674.1660211159058
sg8
F-701.687047702824
ss(I4
I-5
I0
tp405
(dp406
g3
F4.946465860700561
sg4
I0
ss(I-1
I-4
I1
tp407
(dp408
g3
F4.9881108640436445
sg4
I0
ss(I13
I5
I10
tp409
(dp410
g7
F3.057208213280316
sg8
I0
ss(I14
I5
I10
tp411
(dp412
g7
F3.7325276683014663
sg8
I0
ss(I12
I4
I9
tp413
(dp414
g7
F4.727435860152658
sg8
I0
ss(I10
I2
I7
tp415
(dp416
g7
F4.9999981568472265
sg8
I0
ss(I2
I-1
I4
tp417
(dp418
g37
F-517.8
sg38
F4.999998490883983
ss(I2
I-3
I2
tp419
(dp420
g37
F4.999999193859082
sg38
I0
ss(I1
I5
I10
tp421
(dp422
g7
F-1753.92
sg8
F-1684.8000000000002
ss(I8
I6
I11
tp423
(dp424
g7
F-140.02991012326336
sg8
F-149.01927926719736
ss(I3
I2
I7
tp425
(dp426
g7
F-1104.0351997686853
sg8
F-1079.2330174771798
ss(I989
I488
I488
tp427
(dp428
g7
F4.766079514508098
sg8
I0
ss(I10
I-4
I1
tp429
(dp430
g37
F4.999999783461686
sg38
I0
ss(I5
I5
I10
tp431
(dp432
g7
F-486.00509052870433
sg8
F-439.72139480388313
ss(I2
I4
I9
tp433
(dp434
g7
F-1395.9444864000002
sg8
F-1369.404864
ss(I9
I1
I6
tp435
(dp436
g7
F4.999995375264488
sg8
I0
ss(I5
I6
I11
tp437
(dp438
g7
F-407.13934067743105
sg8
F-389.9065890369215
ss(I10
I-9
I-4
tp439
(dp440
g3
F4.9999293125222515
sg4
I0
ss(I4
I-6
I-1
tp441
(dp442
g3
F4.164244245191754
sg4
I0
ss(I4
I-3
I2
tp443
(dp444
g3
F4.999999093812415
sg4
I0
ss(I12
I7
I12
tp445
(dp446
g7
F-0.8938537019720628
sg8
I0
ss(I18
I9
I14
tp447
(dp448
g7
F-1080.0
sg8
F4.253053614533888
ss(I-2
I-4
I1
tp449
(dp450
g3
F4.999999064346401
sg4
I0
ss(I11
I8
I13
tp451
(dp452
g7
F-1080.0
sg8
F-11.921840876313532
ss(I6
I4
I9
tp453
(dp454
g7
F-363.9435560254741
sg8
F-302.73636724179744
ss(I-5
I-2
I3
tp455
(dp456
g37
F-1079.1467776906059
sg38
F4.982912231189634
ss(I7
I-8
I-3
tp457
(dp458
g3
F4.9988959311486845
sg4
I0
ss(I6
I-9
I-4
tp459
(dp460
g3
F3.306711791674457
sg4
I0
ss(I8
I-11
I-6
tp461
(dp462
g3
F1.4078224152880798
sg4
I0
ss(I-4
I-1
I4
tp463
(dp464
g37
F-1080.0
sg38
I0
ss(I989
I489
I489
tp465
(dp466
g7
F4.703212992478344
sg8
I0
ss(I5
I7
I12
tp467
(dp468
g7
F-233.13462886464984
sg8
F-377.12389382999277
ss(I7
I-10
I-5
tp469
(dp470
g3
F3.2668704545112845
sg4
I0
ss(I10
I5
I10
tp471
(dp472
g7
F-5.657130446290604
sg8
F-1.0456309446252803
ss(I-5
I-1
I4
tp473
(dp474
g37
F-1080.0
sg38
F2.0129215321942295
ss(I6
I-2
I3
tp475
(dp476
g3
F4.999999142505782
sg4
I0
ss(I1
I-2
I3
tp477
(dp478
g37
F4.999998155696138
sg38
I0
ss(I8
I-2
I3
tp479
(dp480
g37
F4.9999996255216805
sg38
I0
ss(I15
I1
I6
tp481
(dp482
g7
F2.6928846569968776
sg8
I0
ss(I5
I-8
I-3
tp483
(dp484
g3
F1.2222487001268696
sg4
I0
ss(I-1
I-2
I3
tp485
(dp486
g37
F-1078.548515895575
sg38
F4.999998823071339
ss(I11
I-6
I-1
tp487
(dp488
g3
F4.999999162393221
sg4
I0
ss(I10
I9
I14
tp489
(dp490
g7
F-18.21440291384005
sg8
F-20.333237754092906
ss(I3
I-6
I-1
tp491
(dp492
g3
F1.7723587612744995
sg4
I0
ss(I5
I-5
I0
tp493
(dp494
g3
F4.999946533546483
sg4
I0
ss(I3
I9
I14
tp495
(dp496
g7
F-117.70683404697601
sg8
I0
ss(I6
I2
I7
tp497
(dp498
g7
F-148.1967631889759
sg8
F4.9999935676087555
ss(I12
I-12
I-7
tp499
(dp500
g3
F4.132892559522475
sg4
I0
ss(I12
I1
I6
tp501
(dp502
g3
F4.999996021421325
sg4
I0
ss(I16
I4
I9
tp503
(dp504
g7
F4.3600555421271485
sg8
I0
ss(I4
I0
I5
tp505
(dp506
g37
F-218.42067074712287
sg38
F4.999997524639393
ss(I16
I5
I10
tp507
(dp508
g7
F4.348094928788509
sg8
I0
ss(I16
I3
I8
tp509
(dp510
g7
F4.71207045599206
sg8
I0
ss(I18
I3
I8
tp511
(dp512
g7
F-1080.0
sg8
F4.38611719157203
ss(I17
I4
I9
tp513
(dp514
g7
F4.742012581076025
sg8
I0
ss(I11
I-2
I3
tp515
(dp516
g37
F4.999998885672185
sg38
I0
ss(I6
I-8
I-3
tp517
(dp518
g3
F4.677306054657702
sg4
I0
ss(I5
I1
I6
tp519
(dp520
g37
F4.999996564592053
sg38
F-117.26813452287577
ss(I7
I-3
I2
tp521
(dp522
g37
F4.99999956710174
sg38
I0
ss(I5
I0
I5
tp523
(dp524
g37
F-52.72289012880545
sg38
F4.999999275746125
ss(I4
I-4
I1
tp525
(dp526
g3
F4.99972490043554
sg4
I0
ss(I11
I2
I7
tp527
(dp528
g7
F4.999994932828034
sg8
I0
ss(I-6
I-2
I3
tp529
(dp530
g37
F1.2023616564177797
sg38
I0
ss(I7
I8
I13
tp531
(dp532
g7
F-12.536934479177695
sg8
F-12.173341802325245
ss(I18
I5
I10
tp533
(dp534
g7
F-1080.0
sg8
F4.7617584701061695
ss(I9
I3
I8
tp535
(dp536
g7
F-8.619936909506961
sg8
F4.99999726539359
ss(I8
I5
I10
tp537
(dp538
g7
F-113.79768081953524
sg8
F-88.90575276857126
ss(I7
I7
I12
tp539
(dp540
g7
F-190.71696615204732
sg8
F-186.42696645715728
ss(I5
I-1
I4
tp541
(dp542
g37
F-1.6891258597432386
sg38
F4.9999993881190585
ss(I11
I3
I8
tp543
(dp544
g7
F-1079.3972244596096
sg8
F4.999993462071504
ss(I2
I1
I6
tp545
(dp546
g7
F-1428.43199232
sg8
F-1426.6223423278839
ss(I5
I3
I8
tp547
(dp548
g7
F-510.028821598174
sg8
F-517.3609456155673
ss(I4
I-8
I-3
tp549
(dp550
g3
F1.2963514585976448
sg4
I0
ss(I12
I-6
I-1
tp551
(dp552
g3
F4.999997680796547
sg4
I0
ss(I5
I-6
I-1
tp553
(dp554
g3
F4.9324620696255685
sg4
I0
ss(I3
I-5
I0
tp555
(dp556
g3
F2.4424140859885406
sg4
I0
ss(I6
I5
I10
tp557
(dp558
g7
F-330.25079482206013
sg8
F-381.9701491900338
ss(I9
I2
I7
tp559
(dp560
g7
F4.999997399588944
sg8
I0
ss(I12
I-1
I4
tp561
(dp562
g3
F4.999995967850809
sg4
I0
ss(I6
I9
I14
tp563
(dp564
g7
F-31.61624996990025
sg8
F-8.067878652958642
ss(I18
I8
I13
tp565
(dp566
g7
F-1080.0
sg8
F4.580000676794227
ss(I1
I3
I8
tp567
(dp568
g7
F-1797.0508800000002
sg8
F-1797.0508800000002
ss(I3
I3
I8
tp569
(dp570
g7
F-1067.0682561533436
sg8
F-1135.5287007887136
ss(I6
I0
I5
tp571
(dp572
g37
F-24.27120102255338
sg38
F4.999999424336144
ss(I8
I-10
I-5
tp573
(dp574
g3
F4.937639920830733
sg4
I0
ss(I-2
I-3
I2
tp575
(dp576
g37
F4.999998775526334
sg38
I0
ss(I11
I-11
I-6
tp577
(dp578
g3
F4.9854731578291425
sg4
I0
ss(I9
I-9
I-4
tp579
(dp580
g3
F4.999648822651698
sg4
I0
ss(I2
I3
I8
tp581
(dp582
g7
F-1437.7326759469058
sg8
F-1436.3129453568004
ss(I9
I-1
I4
tp583
(dp584
g37
F4.999999408313539
sg38
I0
ss(I2
I7
I12
tp585
(dp586
g7
F-932.1840000000001
sg8
F-932.2800000000001
ss(I6
I7
I12
tp587
(dp588
g7
F-75.05713776876125
sg8
F-150.0380114782571
ss(I4
I10
I15
tp589
(dp590
g7
F-1080.0
sg8
F1.8024218916121093
ss(I989
I487
I487
tp591
(dp592
g7
F4.81571194571859
sg8
I0
ss(I16
I1
I6
tp593
(dp594
g7
F2.3676524543046686
sg8
I0
ss(I8
I-3
I2
tp595
(dp596
g3
F4.999999694908273
sg4
I0
ss(I18
I10
I15
tp597
(dp598
g7
F-1080.0
sg8
F4.144004898893543
ss(I12
I9
I14
tp599
(dp600
g7
F-3.3352655477534054
sg8
F-5.177871066814525
ss(I7
I-4
I1
tp601
(dp602
g37
F4.999997928047241
sg38
I0
ss(I14
I2
I7
tp603
(dp604
g7
F4.6636490921660005
sg8
I0
ss(I13
I6
I11
tp605
(dp606
g7
F2.4757668611495123
sg8
I0
ss(I10
I-7
I-2
tp607
(dp608
g37
F4.99999646594574
sg38
I0
ss(I5
I-4
I1
tp609
(dp610
g3
F4.999919372390816
sg4
I0
ss(I16
I8
I13
tp611
(dp612
g7
F2.9920948749848435
sg8
I0
ss(I7
I2
I7
tp613
(dp614
g7
F-6.340821010887716
sg8
F4.999999279156517
ss(I10
I-8
I-3
tp615
(dp616
g3
F4.999977938338801
sg4
I0
ss(I11
I6
I11
tp617
(dp618
g7
F-1079.2848980580477
sg8
F0.9178313210455333
ss(I8
I4
I9
tp619
(dp620
g7
F-83.57633760965692
sg8
F-79.19814282447402
ss(I4
I7
I12
tp621
(dp622
g7
F-1079.4235779072
sg8
F-227.82863315052822
ss(I14
I3
I8
tp623
(dp624
g7
F4.643121756135365
sg8
I0
ss(I13
I9
I14
tp625
(dp626
g37
F-0.5680599197399765
sg38
I0
ss(I3
I-2
I3
tp627
(dp628
g37
F4.999999237398236
sg38
I0
ss(I10
I-2
I3
tp629
(dp630
g3
F4.99999953148064
sg4
I0
ss(I13
I1
I6
tp631
(dp632
g37
F2.3920504263799995
sg38
I0
ss.